; Function Attrs: mustprogress uwtable
define hidden noundef zeroext i1 @_ZN19OpenColorIO_v2_5dev17StringVecToIntVecERSt6vectorIiSaIiEERKS0_INSt7__cxx1112basic_stringIcSt11char_traitsIcESaIcEEESaIS9_EE(ptr noundef nonnull align 8 dereferenceable(24) %0, ptr noundef nonnull readonly align 8 captures(none) dereferenceable(24) %1) local_unnamed_addr #5 personality ptr @__gxx_personality_v0 {
  %3 = alloca i32, align 4
  %4 = getelementptr inbounds nuw i8, ptr %1, i64 8
  %5 = load ptr, ptr %4, align 8, !tbaa !83
  %6 = load ptr, ptr %1, align 8, !tbaa !86
  %7 = ptrtoint ptr %5 to i64
  %8 = ptrtoint ptr %6 to i64
  %9 = sub i64 %7, %8
  %10 = ashr exact i64 %9, 5
  %11 = getelementptr inbounds nuw i8, ptr %0, i64 8
  %12 = load ptr, ptr %11, align 8, !tbaa !92
  %13 = load ptr, ptr %0, align 8, !tbaa !95
  %14 = ptrtoint ptr %12 to i64
  %15 = ptrtoint ptr %13 to i64
  %16 = sub i64 %14, %15
  %17 = ashr exact i64 %16, 2
  %18 = icmp ugt i64 %10, %17
  br i1 %18, label %19, label %21

19:                                               ; preds = %2
  %20 = sub nuw nsw i64 %10, %17
  tail call void @_ZNSt6vectorIiSaIiEE17_M_default_appendEm(ptr noundef nonnull align 8 dereferenceable(24) %0, i64 noundef %20)
  %.pre = load ptr, ptr %4, align 8, !tbaa !83
  %.pre17 = load ptr, ptr %1, align 8, !tbaa !86
  br label %_ZNSt6vectorIiSaIiEE6resizeEm.exit

21:                                               ; preds = %2
  %22 = icmp ult i64 %10, %17
  br i1 %22, label %23, label %_ZNSt6vectorIiSaIiEE6resizeEm.exit

23:                                               ; preds = %21
  %24 = getelementptr inbounds nuw i32, ptr %13, i64 %10
  %.not.i.i = icmp eq ptr %12, %24
  br i1 %.not.i.i, label %_ZNSt6vectorIiSaIiEE6resizeEm.exit, label %25

25:                                               ; preds = %23
  store ptr %24, ptr %11, align 8, !tbaa !92
  br label %_ZNSt6vectorIiSaIiEE6resizeEm.exit

_ZNSt6vectorIiSaIiEE6resizeEm.exit:               ; preds = %19, %21, %23, %25
  %26 = phi ptr [ %.pre17, %19 ], [ %6, %21 ], [ %6, %23 ], [ %6, %25 ]
  %27 = phi ptr [ %.pre, %19 ], [ %5, %21 ], [ %5, %23 ], [ %5, %25 ]
  %28 = icmp eq ptr %27, %26
  br i1 %28, label %.loopexit, label %.lr.ph

.lr.ph:                                           ; preds = %_ZNSt6vectorIiSaIiEE6resizeEm.exit, %34
  %29 = phi ptr [ %41, %34 ], [ %26, %_ZNSt6vectorIiSaIiEE6resizeEm.exit ]
  %30 = phi i64 [ %39, %34 ], [ 0, %_ZNSt6vectorIiSaIiEE6resizeEm.exit ]
  %.01116 = phi i32 [ %38, %34 ], [ 0, %_ZNSt6vectorIiSaIiEE6resizeEm.exit ]
  call void @llvm.lifetime.start.p0(i64 4, ptr nonnull %3) #25
  %31 = getelementptr inbounds nuw %"class.std::__cxx11::basic_string", ptr %29, i64 %30
  %32 = load ptr, ptr %31, align 8, !tbaa !9
  %33 = call noundef zeroext i1 @_ZN19OpenColorIO_v2_5dev11StringToIntEPiPKcb(ptr noundef nonnull %3, ptr noundef %32, i1 noundef zeroext true)
  br i1 %33, label %34, label %.critedge

34:                                               ; preds = %.lr.ph
  %35 = load i32, ptr %3, align 4, !tbaa !61
  %36 = load ptr, ptr %0, align 8, !tbaa !95
  %37 = getelementptr inbounds nuw i32, ptr %36, i64 %30
  store i32 %35, ptr %37, align 4, !tbaa !61
  call void @llvm.lifetime.end.p0(i64 4, ptr nonnull %3) #25
  %38 = add i32 %.01116, 1
  %39 = zext i32 %38 to i64
  %40 = load ptr, ptr %4, align 8, !tbaa !83
  %41 = load ptr, ptr %1, align 8, !tbaa !86
  %42 = ptrtoint ptr %40 to i64
  %43 = ptrtoint ptr %41 to i64
  %44 = sub i64 %42, %43
  %45 = ashr exact i64 %44, 5
  %.not = icmp ugt i64 %45, %39
  br i1 %.not, label %.lr.ph, label %.loopexit, !llvm.loop !96

.critedge:                                        ; preds = %.lr.ph
  call void @llvm.lifetime.end.p0(i64 4, ptr nonnull %3) #25
  br label %.loopexit

.loopexit:                                        ; preds = %34, %_ZNSt6vectorIiSaIiEE6resizeEm.exit, %.critedge
  %46 = phi i1 [ false, %.critedge ], [ true, %_ZNSt6vectorIiSaIiEE6resizeEm.exit ], [ true, %34 ]
  ret i1 %46
}